#SYMBOLS
Index	Identifier	Type	Flag	Data	Size	RefCount
0	__CLSRMutex1	9	0	0	4	2
1	__TextOutMutex	9	0	4	4	16
2	__CLSWMutex1	9	0	8	4	2
3	__signed_stack_001display	6	1	12	4	8
4	__Wait_7qG2_ms_7qG2_000_inline_display	5	1	16	4	2
5	__RLSBmutex1	9	0	20	4	2
6	__signed_stack_001move	6	1	24	4	16
7	__signed_stack_002display	6	1	28	4	8
8	__Wait_7qG2_ms_7qG2_000_inline_read	5	1	32	4	2
9	__CLSCSMutex1	9	0	36	4	2
10	__D0SetSensorLowspeed_inline_main	6	1	40	4	3
11	__DU0SetSensorLowspeed_inline_main	5	1	44	4	2
12	__D0read	6	1	48	4	9
13	__D0display	6	1	52	4	14
14	__Wait_7qG2_ms_7qG2_000_inline_move	5	1	56	4	2
15	__D0move	6	1	60	4	23
16	__constVal360	4	0	64	2	1
17	target_heading	4	0	66	2	11
18	relative_heading	4	1	68	2	4
19	steer	4	0	70	2	3
20	__constValNeg179	4	0	72	2	1
21	Compass_val	4	1	74	2	8
22	__constVal180	4	0	76	2	1
23	__zfSetSensorLowspeed_inline_main	1	1	78	1	2
24	__zfread	1	1	79	1	2
25	__SetSensorType_7qG2_port_7qG2_000_inline_SetSensorLowspeed_inline_main	1	1	80	1	2
26	__SetSensorLowspeed_7qG2_bIsPowered_7qG2_000_inline_main	1	1	81	1	2
27	__SetSensorType_7qG2_type_7qG2_000_inline_SetSensorLowspeed_inline_main	1	1	82	1	2
28	__SetSensorMode_7qG2_mode_7qG2_000_inline_SetSensorLowspeed_inline_main	1	1	83	1	2
29	__SetSensorMode_7qG2_port_7qG2_000_inline_SetSensorLowspeed_inline_main	1	1	84	1	2
30	__SetSensorLowspeed_7qG2_port_7qG2_000_inline_main	1	1	85	1	4
31	__constVal96	2	0	86	1	3
32	__ClearLine_7qG2_line_7qG2_000_inline_display	1	1	87	1	8
33	__constVal63	2	0	88	1	2
34	____initialize_global_data_return	1	1	89	1	3
35	__constVal23	2	0	90	1	1
36	__zfmove	1	1	91	1	17
37	__constVal15	2	0	92	1	1
38	__constVal1	2	0	93	1	6
39	__constVal32	2	0	94	1	9
40	____ReadLSBytes1_return	1	1	95	1	3
41	__constVal0	2	1	96	1	15
42	__ResetSensorPort	1	1	97	1	3
43	__constVal3	2	0	98	1	1
44	____ResetSensorSubroutine_return	1	1	99	1	3
45	__ResetSensorTmp	1	1	100	1	2
46	__RLSBResult1	2	1	101	1	7
47	__constVal7	2	0	102	1	2
48	__constValNeg100	2	0	103	1	1
49	__PFTmp	1	1	104	1	1
50	__constVal8	2	0	105	1	1
51	__RLSBIterations1	1	1	106	1	4
52	__RLSBytesCount1	1	1	107	1	9
53	__constVal2	2	0	108	1	2
54	__zfdisplay	1	1	109	1	2
55	__CLSCSArgs1	8	0	3	4	4
56	__CLSCSArgs1.Result	2	1	112	1	4
57	__CLSCSArgs1.Port	1	1	113	1	4
58	__CLSCSArgs1.BytesReady	1	1	114	1	4
59	__TextOutArgs	8	0	4	16	44
60	__TextOutArgs.Result	2	1	116	1	44
61	__TextOutArgs.Location	8	0	2	4	44
62	__TextOutArgs.Location.X	4	1	120	2	44
63	__TextOutArgs.Location.Y	4	1	122	2	44
64	__TextOutArgs.Text	7	0	124	4	44
65	__TextOutArgs.Text.Text_type	1	0	0	1	0
66	__TextOutArgs.Options	5	1	128	4	44
67	__CLSRArgs1	8	0	4	12	5
68	__CLSRArgs1.Result	2	1	132	1	5
69	__CLSRArgs1.Port	1	1	133	1	5
70	__CLSRArgs1.Buffer	7	0	134	4	5
71	__CLSRArgs1.Buffer.Buffer_type	1	0	0	1	0
72	__CLSRArgs1.BufferLen	1	1	136	1	5
73	__CLSWArgs1	8	0	4	12	5
74	__CLSWArgs1.Result	2	1	140	1	5
75	__CLSWArgs1.Port	1	1	141	1	5
76	__CLSWArgs1.Buffer	7	0	142	4	5
77	__CLSWArgs1.Buffer.Buffer_type	1	0	0	1	0
78	__CLSWArgs1.ReturnLen	1	1	144	1	5
79	__OUT_BC	7	0	146	4	3
80	__OUT_BC.__OUT_BC_type	1	0	0	1	0
81	__RLSLastGoodRead1	7	0	148	4	2
82	__RLSLastGoodRead1.__RLSLastGoodRead1_type	1	0	0	1	0
83	__RLSReadBuf1	7	0	150	4	9
84	__RLSReadBuf1.__RLSReadBuf1_type	1	0	0	1	0
85	__BlankLine	7	0	152	4	4
86	__BlankLine.__BlankLine_type	1	0	0	1	0
87	__RLSBbufLSWrite1	7	0	154	4	1
88	__RLSBbufLSWrite1.__RLSBbufLSWrite1_type	1	0	0	1	0
#SOURCES
Clump	Line	PC	Source
0	71	0	#line 71 "C:\Users\ronk\Documents\NXCprograms\CMPSlineTest2.nxc"
0	72	0		subcall __initialize_global_data, ____initialize_global_data_return
0	71	2	#line 71 "C:\Users\ronk\Documents\NXCprograms\CMPSlineTest2.nxc"
0	71	2	#line 71 "C:\Users\ronk\Documents\NXCprograms\CMPSlineTest2.nxc"
0	72	2		set __SetSensorLowspeed_7qG2_port_7qG2_000_inline_main, 1
0	71	5	#line 71 "C:\Users\ronk\Documents\NXCprograms\CMPSlineTest2.nxc"
0	72	5	#line 72 "C:\Users\ronk\Documents\NXCprograms\CMPSlineTest2.nxc"
0	73	5		mov __SetSensorLowspeed_7qG2_bIsPowered_7qG2_000_inline_main, __constVal1
0	3758	7	#line 3758 "NXCDefs.h"
0	3759	7		mov __SetSensorType_7qG2_port_7qG2_000_inline_SetSensorLowspeed_inline_main, __SetSensorLowspeed_7qG2_port_7qG2_000_inline_main
0	3758	9	#line 3758 "NXCDefs.h"
0	3758	9	#line 3758 "NXCDefs.h"
0	3759	9		mov __DU0SetSensorLowspeed_inline_main, __SetSensorLowspeed_7qG2_bIsPowered_7qG2_000_inline_main
0	3758	11	#line 3758 "NXCDefs.h"
0	3759	11		tst 5, __zfSetSensorLowspeed_inline_main, __DU0SetSensorLowspeed_inline_main
0	3758	14	#line 3758 "NXCDefs.h"
0	3759	14		brtst 4, __004__NXC_Label_36, __zfSetSensorLowspeed_inline_main
0	3758	17	#line 3758 "NXCDefs.h"
0	3759	17		set __D0SetSensorLowspeed_inline_main, 11
0	3758	20	#line 3758 "NXCDefs.h"
0	3759	20		jmp __004__NXC_Label_37
0	3758	22	#line 3758 "NXCDefs.h"
0	3759	22		set __D0SetSensorLowspeed_inline_main, 10
0	3758	25	#line 3758 "NXCDefs.h"
0	3759	25		mov __SetSensorType_7qG2_type_7qG2_000_inline_SetSensorLowspeed_inline_main, __D0SetSensorLowspeed_inline_main
0	3663	27	#line 3663 "NXCDefs.h"
0	3664	27		setin __SetSensorType_7qG2_type_7qG2_000_inline_SetSensorLowspeed_inline_main, __SetSensorType_7qG2_port_7qG2_000_inline_SetSensorLowspeed_inline_main, 0
0	3663	31	#line 3663 "NXCDefs.h"
0	3759	31	#line 3759 "NXCDefs.h"
0	3759	31	#line 3759 "NXCDefs.h"
0	3760	31		mov __SetSensorMode_7qG2_port_7qG2_000_inline_SetSensorLowspeed_inline_main, __SetSensorLowspeed_7qG2_port_7qG2_000_inline_main
0	3759	33	#line 3759 "NXCDefs.h"
0	3759	33	#line 3759 "NXCDefs.h"
0	3760	33		set __SetSensorMode_7qG2_mode_7qG2_000_inline_SetSensorLowspeed_inline_main, 0
0	3759	36	#line 3759 "NXCDefs.h"
0	3676	36	#line 3676 "NXCDefs.h"
0	3677	36		setin __SetSensorMode_7qG2_mode_7qG2_000_inline_SetSensorLowspeed_inline_main, __SetSensorMode_7qG2_port_7qG2_000_inline_SetSensorLowspeed_inline_main, 1
0	3676	40	#line 3676 "NXCDefs.h"
0	3760	40	#line 3760 "NXCDefs.h"
0	3760	40	#line 3760 "NXCDefs.h"
0	3760	40	#line 3760 "NXCDefs.h"
0	3694	40	#line 3694 "NXCDefs.h"
0	3695	40	#pragma macro 4
0	3695	40		mov __ResetSensorPort, __SetSensorLowspeed_7qG2_port_7qG2_000_inline_main
0	3695	42		subcall __ResetSensorSubroutine, ____ResetSensorSubroutine_return
0	4419	44	#line 4419 "NXCDefs.h"
0	3694	44	#line 3694 "NXCDefs.h"
0	3761	44	#line 3761 "NXCDefs.h"
0	72	44	#line 72 "C:\Users\ronk\Documents\NXCprograms\CMPSlineTest2.nxc"
0	75	44	#line 75 "C:\Users\ronk\Documents\NXCprograms\CMPSlineTest2.nxc"
0	75	44	#line 75 "C:\Users\ronk\Documents\NXCprograms\CMPSlineTest2.nxc"
0	76	44		exit 0, 2
1	4885	0		setin __constVal1, __ResetSensorPort, 5
1	4887	4		getin __ResetSensorTmp, __ResetSensorPort, 5
1	4888	8		brtst 5, __SensorStillInvalid, __ResetSensorTmp
1	4889	11		subret ____ResetSensorSubroutine_return
2	5710	0	#pragma macro 25
2	5710	0		acquire __CLSWMutex1
2	5710	1		set __CLSWArgs1.Port, 1
2	5710	4		mov __CLSWArgs1.ReturnLen, __RLSBytesCount1
2	5710	6		mov __CLSWArgs1.Buffer, __RLSReadBuf1
2	5710	8		syscall 21, __CLSWArgs1
2	5710	11		mov __RLSBResult1, __CLSWArgs1.Result
2	5710	13		release __CLSWMutex1
2	5710	14	#line 5710 "NXTDefs.h"
2	5711	14		brtst 4, __RLSBReturn1, __RLSBytesCount1
2	5712	17		arrinit __RLSReadBuf1, __constVal0, __RLSBytesCount1
2	5713	21		brtst 5, __RLSBError1, __RLSBResult1
2	5714	24		set __RLSBIterations1, 4
2	5716	27	#pragma macro 23
2	5716	27		acquire __CLSCSMutex1
2	5716	28		set __CLSCSArgs1.Port, 1
2	5716	31		syscall 23, __CLSCSArgs1
2	5716	34		mov __RLSBytesCount1, __CLSCSArgs1.BytesReady
2	5716	36		mov __RLSBResult1, __CLSCSArgs1.Result
2	5716	38		release __CLSCSMutex1
2	5716	39	#line 5716 "NXTDefs.h"
2	5717	39		sub __RLSBIterations1, __RLSBIterations1, __constVal1
2	5718	43		brtst 2, __RLSBError1, __RLSBIterations1
2	5719	46		brtst 0, __RLSBError1, __RLSBResult1
2	5720	49		brtst 4, __RLSBReadyToRead1, __RLSBResult1
2	5722	52		wait2 NA, __constVal15
2	5723	55		jmp __RLSBDoCheckStatus1
2	5726	57	#pragma macro 25
2	5726	57		acquire __CLSRMutex1
2	5726	58		set __CLSRArgs1.Port, 1
2	5726	61		mov __CLSRArgs1.BufferLen, __RLSBytesCount1
2	5726	63		syscall 22, __CLSRArgs1
2	5726	66		mov __RLSReadBuf1, __CLSRArgs1.Buffer
2	5726	68		mov __RLSBResult1, __CLSRArgs1.Result
2	5726	70		release __CLSRMutex1
2	5726	71	#line 5726 "NXTDefs.h"
2	5727	71		brtst 5, __RLSBError1, __RLSBResult1
2	5728	74		mov __RLSLastGoodRead1, __RLSReadBuf1
2	5729	76		jmp __RLSBDone1
2	5731	78		mov __RLSReadBuf1, __RLSLastGoodRead1
2	5733	80		arrsize __RLSBytesCount1, __RLSReadBuf1
2	5735	83		subret ____ReadLSBytes1_return
3	4	0	#line 4 "C:\Users\ronk\Documents\NXCprograms\CMPSlineTest2.nxc"
3	5	0		set __D0read, 1
3	5	3	#line 5 "C:\Users\ronk\Documents\NXCprograms\CMPSlineTest2.nxc"
3	6	3		tst 5, __zfread, __D0read
3	5	6	#line 5 "C:\Users\ronk\Documents\NXCprograms\CMPSlineTest2.nxc"
3	6	6		brtst 4, __NXC_Label_490, __zfread
3	5	9	#line 5 "C:\Users\ronk\Documents\NXCprograms\CMPSlineTest2.nxc"
3	6	9	#pragma macro 30
3	6	9		acquire __RLSBmutex1
3	6	10		mov __RLSReadBuf1, __RLSBbufLSWrite1
3	6	12		set __RLSBytesCount1, 2
3	6	15		subcall __ReadLSBytes1, ____ReadLSBytes1_return
3	6	17		index __D0read, __RLSReadBuf1, 65535
3	6	21		index __RLSBytesCount1, __RLSReadBuf1, __constVal1
3	6	25		add __D0read, __D0read, __D0read
3	6	29		add __D0read, __D0read, __RLSBytesCount1
3	6	33		release __RLSBmutex1
3	3842	34	#line 3842 "C:\Users\ronk\Documents\NXCprograms\CMPSlineTest2.nxc"
3	5	34	#line 5 "C:\Users\ronk\Documents\NXCprograms\CMPSlineTest2.nxc"
3	6	34		mov Compass_val, __D0read
3	5	36	#line 5 "C:\Users\ronk\Documents\NXCprograms\CMPSlineTest2.nxc"
3	5	36	#line 5 "C:\Users\ronk\Documents\NXCprograms\CMPSlineTest2.nxc"
3	6	36	#line 6 "C:\Users\ronk\Documents\NXCprograms\CMPSlineTest2.nxc"
3	7	36		set __Wait_7qG2_ms_7qG2_000_inline_read, 50
3	6	39	#line 6 "C:\Users\ronk\Documents\NXCprograms\CMPSlineTest2.nxc"
3	7921	39	#line 7921 "NXCDefs.h"
3	7922	39		wait2 NA, __Wait_7qG2_ms_7qG2_000_inline_read
3	7921	42	#line 7921 "NXCDefs.h"
3	7	42	#line 7 "C:\Users\ronk\Documents\NXCprograms\CMPSlineTest2.nxc"
3	10	42	#line 10 "C:\Users\ronk\Documents\NXCprograms\CMPSlineTest2.nxc"
3	11	42		jmp __NXC_Label_489
3	10	44	#line 10 "C:\Users\ronk\Documents\NXCprograms\CMPSlineTest2.nxc"
3	11	44		exit -1, -1
4	12	0	#line 12 "C:\Users\ronk\Documents\NXCprograms\CMPSlineTest2.nxc"
4	13	0		set __D0display, 1
4	13	3	#line 13 "C:\Users\ronk\Documents\NXCprograms\CMPSlineTest2.nxc"
4	14	3		tst 5, __zfdisplay, __D0display
4	13	6	#line 13 "C:\Users\ronk\Documents\NXCprograms\CMPSlineTest2.nxc"
4	14	6		brtst 4, __NXC_Label_498, __zfdisplay
4	13	9	#line 13 "C:\Users\ronk\Documents\NXCprograms\CMPSlineTest2.nxc"
4	14	9		set __ClearLine_7qG2_line_7qG2_000_inline_display, 32
4	13	12	#line 13 "C:\Users\ronk\Documents\NXCprograms\CMPSlineTest2.nxc"
4	6076	12	#line 6076 "NXCDefs.h"
4	6077	12	#pragma macro 7
4	6077	12		acquire __TextOutMutex
4	6077	13		mov __TextOutArgs.Location.X, __constVal0
4	6077	15		mov __TextOutArgs.Location.Y, __ClearLine_7qG2_line_7qG2_000_inline_display
4	6077	17		mov __TextOutArgs.Options, __constVal0
4	6077	19		mov __TextOutArgs.Text, __BlankLine
4	6077	21		syscall 13, __TextOutArgs
4	6077	24		release __TextOutMutex
4	3890	25	#line 3890 "NXCDefs.h"
4	6076	25	#line 6076 "NXCDefs.h"
4	14	25	#line 14 "C:\Users\ronk\Documents\NXCprograms\CMPSlineTest2.nxc"
4	14	25	#line 14 "C:\Users\ronk\Documents\NXCprograms\CMPSlineTest2.nxc"
4	15	25		set __ClearLine_7qG2_line_7qG2_000_inline_display, 16
4	14	28	#line 14 "C:\Users\ronk\Documents\NXCprograms\CMPSlineTest2.nxc"
4	6076	28	#line 6076 "NXCDefs.h"
4	6077	28	#pragma macro 7
4	6077	28		acquire __TextOutMutex
4	6077	29		mov __TextOutArgs.Location.X, __constVal0
4	6077	31		mov __TextOutArgs.Location.Y, __ClearLine_7qG2_line_7qG2_000_inline_display
4	6077	33		mov __TextOutArgs.Options, __constVal0
4	6077	35		mov __TextOutArgs.Text, __BlankLine
4	6077	37		syscall 13, __TextOutArgs
4	6077	40		release __TextOutMutex
4	3900	41	#line 3900 "NXCDefs.h"
4	6076	41	#line 6076 "NXCDefs.h"
4	15	41	#line 15 "C:\Users\ronk\Documents\NXCprograms\CMPSlineTest2.nxc"
4	15	41	#line 15 "C:\Users\ronk\Documents\NXCprograms\CMPSlineTest2.nxc"
4	16	41		set __ClearLine_7qG2_line_7qG2_000_inline_display, 8
4	15	44	#line 15 "C:\Users\ronk\Documents\NXCprograms\CMPSlineTest2.nxc"
4	6076	44	#line 6076 "NXCDefs.h"
4	6077	44	#pragma macro 7
4	6077	44		acquire __TextOutMutex
4	6077	45		mov __TextOutArgs.Location.X, __constVal0
4	6077	47		mov __TextOutArgs.Location.Y, __ClearLine_7qG2_line_7qG2_000_inline_display
4	6077	49		mov __TextOutArgs.Options, __constVal0
4	6077	51		mov __TextOutArgs.Text, __BlankLine
4	6077	53		syscall 13, __TextOutArgs
4	6077	56		release __TextOutMutex
4	3910	57	#line 3910 "NXCDefs.h"
4	6076	57	#line 6076 "NXCDefs.h"
4	16	57	#line 16 "C:\Users\ronk\Documents\NXCprograms\CMPSlineTest2.nxc"
4	16	57	#line 16 "C:\Users\ronk\Documents\NXCprograms\CMPSlineTest2.nxc"
4	17	57		set __ClearLine_7qG2_line_7qG2_000_inline_display, 0
4	16	60	#line 16 "C:\Users\ronk\Documents\NXCprograms\CMPSlineTest2.nxc"
4	6076	60	#line 6076 "NXCDefs.h"
4	6077	60	#pragma macro 7
4	6077	60		acquire __TextOutMutex
4	6077	61		mov __TextOutArgs.Location.X, __constVal0
4	6077	63		mov __TextOutArgs.Location.Y, __ClearLine_7qG2_line_7qG2_000_inline_display
4	6077	65		mov __TextOutArgs.Options, __constVal0
4	6077	67		mov __TextOutArgs.Text, __BlankLine
4	6077	69		syscall 13, __TextOutArgs
4	6077	72		release __TextOutMutex
4	3920	73	#line 3920 "NXCDefs.h"
4	6076	73	#line 6076 "NXCDefs.h"
4	17	73	#line 17 "C:\Users\ronk\Documents\NXCprograms\CMPSlineTest2.nxc"
4	17	73	#line 17 "C:\Users\ronk\Documents\NXCprograms\CMPSlineTest2.nxc"
4	18	73		set __signed_stack_001display, 30
4	17	76	#line 17 "C:\Users\ronk\Documents\NXCprograms\CMPSlineTest2.nxc"
4	17	76	#line 17 "C:\Users\ronk\Documents\NXCprograms\CMPSlineTest2.nxc"
4	18	76		set __signed_stack_002display, 32
4	17	79	#line 17 "C:\Users\ronk\Documents\NXCprograms\CMPSlineTest2.nxc"
4	17	79	#line 17 "C:\Users\ronk\Documents\NXCprograms\CMPSlineTest2.nxc"
4	18	79		mov __D0display, Compass_val
4	18	81	#line 18 "C:\Users\ronk\Documents\NXCprograms\CMPSlineTest2.nxc"
4	19	81		acquire __TextOutMutex
4	18	82	#line 18 "C:\Users\ronk\Documents\NXCprograms\CMPSlineTest2.nxc"
4	19	82		mov __TextOutArgs.Location.X, __signed_stack_001display
4	18	84	#line 18 "C:\Users\ronk\Documents\NXCprograms\CMPSlineTest2.nxc"
4	19	84		mov __TextOutArgs.Location.Y, __signed_stack_002display
4	18	86	#line 18 "C:\Users\ronk\Documents\NXCprograms\CMPSlineTest2.nxc"
4	19	86		set __TextOutArgs.Options, 0
4	18	89	#line 18 "C:\Users\ronk\Documents\NXCprograms\CMPSlineTest2.nxc"
4	19	89		numtostr __TextOutArgs.Text, __D0display
4	18	92	#line 18 "C:\Users\ronk\Documents\NXCprograms\CMPSlineTest2.nxc"
4	19	92		syscall 13, __TextOutArgs
4	18	95	#line 18 "C:\Users\ronk\Documents\NXCprograms\CMPSlineTest2.nxc"
4	19	95		mov __D0display, __TextOutArgs.Result
4	18	97	#line 18 "C:\Users\ronk\Documents\NXCprograms\CMPSlineTest2.nxc"
4	19	97		release __TextOutMutex
4	18	98	#line 18 "C:\Users\ronk\Documents\NXCprograms\CMPSlineTest2.nxc"
4	18	98	#line 18 "C:\Users\ronk\Documents\NXCprograms\CMPSlineTest2.nxc"
4	19	98		set __signed_stack_001display, 30
4	18	101	#line 18 "C:\Users\ronk\Documents\NXCprograms\CMPSlineTest2.nxc"
4	18	101	#line 18 "C:\Users\ronk\Documents\NXCprograms\CMPSlineTest2.nxc"
4	19	101		set __signed_stack_002display, 16
4	18	104	#line 18 "C:\Users\ronk\Documents\NXCprograms\CMPSlineTest2.nxc"
4	18	104	#line 18 "C:\Users\ronk\Documents\NXCprograms\CMPSlineTest2.nxc"
4	19	104		mov __D0display, target_heading
4	19	106	#line 19 "C:\Users\ronk\Documents\NXCprograms\CMPSlineTest2.nxc"
4	20	106		acquire __TextOutMutex
4	19	107	#line 19 "C:\Users\ronk\Documents\NXCprograms\CMPSlineTest2.nxc"
4	20	107		mov __TextOutArgs.Location.X, __signed_stack_001display
4	19	109	#line 19 "C:\Users\ronk\Documents\NXCprograms\CMPSlineTest2.nxc"
4	20	109		mov __TextOutArgs.Location.Y, __signed_stack_002display
4	19	111	#line 19 "C:\Users\ronk\Documents\NXCprograms\CMPSlineTest2.nxc"
4	20	111		set __TextOutArgs.Options, 0
4	19	114	#line 19 "C:\Users\ronk\Documents\NXCprograms\CMPSlineTest2.nxc"
4	20	114		numtostr __TextOutArgs.Text, __D0display
4	19	117	#line 19 "C:\Users\ronk\Documents\NXCprograms\CMPSlineTest2.nxc"
4	20	117		syscall 13, __TextOutArgs
4	19	120	#line 19 "C:\Users\ronk\Documents\NXCprograms\CMPSlineTest2.nxc"
4	20	120		mov __D0display, __TextOutArgs.Result
4	19	122	#line 19 "C:\Users\ronk\Documents\NXCprograms\CMPSlineTest2.nxc"
4	20	122		release __TextOutMutex
4	19	123	#line 19 "C:\Users\ronk\Documents\NXCprograms\CMPSlineTest2.nxc"
4	19	123	#line 19 "C:\Users\ronk\Documents\NXCprograms\CMPSlineTest2.nxc"
4	20	123		set __signed_stack_001display, 30
4	19	126	#line 19 "C:\Users\ronk\Documents\NXCprograms\CMPSlineTest2.nxc"
4	19	126	#line 19 "C:\Users\ronk\Documents\NXCprograms\CMPSlineTest2.nxc"
4	20	126		set __signed_stack_002display, 8
4	19	129	#line 19 "C:\Users\ronk\Documents\NXCprograms\CMPSlineTest2.nxc"
4	19	129	#line 19 "C:\Users\ronk\Documents\NXCprograms\CMPSlineTest2.nxc"
4	19	129	#line 19 "C:\Users\ronk\Documents\NXCprograms\CMPSlineTest2.nxc"
4	19	129	#line 19 "C:\Users\ronk\Documents\NXCprograms\CMPSlineTest2.nxc"
4	19	129	#line 19 "C:\Users\ronk\Documents\NXCprograms\CMPSlineTest2.nxc"
4	20	129		sub __D0display, target_heading, Compass_val
4	20	133	#line 20 "C:\Users\ronk\Documents\NXCprograms\CMPSlineTest2.nxc"
4	21	133		acquire __TextOutMutex
4	20	134	#line 20 "C:\Users\ronk\Documents\NXCprograms\CMPSlineTest2.nxc"
4	21	134		mov __TextOutArgs.Location.X, __signed_stack_001display
4	20	136	#line 20 "C:\Users\ronk\Documents\NXCprograms\CMPSlineTest2.nxc"
4	21	136		mov __TextOutArgs.Location.Y, __signed_stack_002display
4	20	138	#line 20 "C:\Users\ronk\Documents\NXCprograms\CMPSlineTest2.nxc"
4	21	138		set __TextOutArgs.Options, 0
4	20	141	#line 20 "C:\Users\ronk\Documents\NXCprograms\CMPSlineTest2.nxc"
4	21	141		numtostr __TextOutArgs.Text, __D0display
4	20	144	#line 20 "C:\Users\ronk\Documents\NXCprograms\CMPSlineTest2.nxc"
4	21	144		syscall 13, __TextOutArgs
4	20	147	#line 20 "C:\Users\ronk\Documents\NXCprograms\CMPSlineTest2.nxc"
4	21	147		mov __D0display, __TextOutArgs.Result
4	20	149	#line 20 "C:\Users\ronk\Documents\NXCprograms\CMPSlineTest2.nxc"
4	21	149		release __TextOutMutex
4	20	150	#line 20 "C:\Users\ronk\Documents\NXCprograms\CMPSlineTest2.nxc"
4	20	150	#line 20 "C:\Users\ronk\Documents\NXCprograms\CMPSlineTest2.nxc"
4	21	150		set __signed_stack_001display, 30
4	20	153	#line 20 "C:\Users\ronk\Documents\NXCprograms\CMPSlineTest2.nxc"
4	20	153	#line 20 "C:\Users\ronk\Documents\NXCprograms\CMPSlineTest2.nxc"
4	21	153		set __signed_stack_002display, 0
4	20	156	#line 20 "C:\Users\ronk\Documents\NXCprograms\CMPSlineTest2.nxc"
4	20	156	#line 20 "C:\Users\ronk\Documents\NXCprograms\CMPSlineTest2.nxc"
4	21	156		mov __D0display, relative_heading
4	21	158	#line 21 "C:\Users\ronk\Documents\NXCprograms\CMPSlineTest2.nxc"
4	22	158		acquire __TextOutMutex
4	21	159	#line 21 "C:\Users\ronk\Documents\NXCprograms\CMPSlineTest2.nxc"
4	22	159		mov __TextOutArgs.Location.X, __signed_stack_001display
4	21	161	#line 21 "C:\Users\ronk\Documents\NXCprograms\CMPSlineTest2.nxc"
4	22	161		mov __TextOutArgs.Location.Y, __signed_stack_002display
4	21	163	#line 21 "C:\Users\ronk\Documents\NXCprograms\CMPSlineTest2.nxc"
4	22	163		set __TextOutArgs.Options, 0
4	21	166	#line 21 "C:\Users\ronk\Documents\NXCprograms\CMPSlineTest2.nxc"
4	22	166		numtostr __TextOutArgs.Text, __D0display
4	21	169	#line 21 "C:\Users\ronk\Documents\NXCprograms\CMPSlineTest2.nxc"
4	22	169		syscall 13, __TextOutArgs
4	21	172	#line 21 "C:\Users\ronk\Documents\NXCprograms\CMPSlineTest2.nxc"
4	22	172		mov __D0display, __TextOutArgs.Result
4	21	174	#line 21 "C:\Users\ronk\Documents\NXCprograms\CMPSlineTest2.nxc"
4	22	174		release __TextOutMutex
4	21	175	#line 21 "C:\Users\ronk\Documents\NXCprograms\CMPSlineTest2.nxc"
4	21	175	#line 21 "C:\Users\ronk\Documents\NXCprograms\CMPSlineTest2.nxc"
4	22	175		set __Wait_7qG2_ms_7qG2_000_inline_display, 500
4	21	178	#line 21 "C:\Users\ronk\Documents\NXCprograms\CMPSlineTest2.nxc"
4	7921	178	#line 7921 "NXCDefs.h"
4	7922	178		wait2 NA, __Wait_7qG2_ms_7qG2_000_inline_display
4	7921	181	#line 7921 "NXCDefs.h"
4	22	181	#line 22 "C:\Users\ronk\Documents\NXCprograms\CMPSlineTest2.nxc"
4	25	181	#line 25 "C:\Users\ronk\Documents\NXCprograms\CMPSlineTest2.nxc"
4	26	181		jmp __NXC_Label_497
4	25	183	#line 25 "C:\Users\ronk\Documents\NXCprograms\CMPSlineTest2.nxc"
4	26	183		exit -1, -1
5	27	0	#line 27 "C:\Users\ronk\Documents\NXCprograms\CMPSlineTest2.nxc"
5	28	0		set __D0move, 1
5	31	3	#line 31 "C:\Users\ronk\Documents\NXCprograms\CMPSlineTest2.nxc"
5	32	3		tst 5, __zfmove, __D0move
5	31	6	#line 31 "C:\Users\ronk\Documents\NXCprograms\CMPSlineTest2.nxc"
5	32	6		brtst 4, __NXC_Label_536, __zfmove
5	31	9	#line 31 "C:\Users\ronk\Documents\NXCprograms\CMPSlineTest2.nxc"
5	31	9	#line 31 "C:\Users\ronk\Documents\NXCprograms\CMPSlineTest2.nxc"
5	31	9	#line 31 "C:\Users\ronk\Documents\NXCprograms\CMPSlineTest2.nxc"
5	31	9	#line 31 "C:\Users\ronk\Documents\NXCprograms\CMPSlineTest2.nxc"
5	32	9		sub __D0move, target_heading, Compass_val
5	31	13	#line 31 "C:\Users\ronk\Documents\NXCprograms\CMPSlineTest2.nxc"
5	32	13		abs __signed_stack_001move, __D0move
5	31	16	#line 31 "C:\Users\ronk\Documents\NXCprograms\CMPSlineTest2.nxc"
5	31	16	#line 31 "C:\Users\ronk\Documents\NXCprograms\CMPSlineTest2.nxc"
5	32	16		set __D0move, 1
5	31	19	#line 31 "C:\Users\ronk\Documents\NXCprograms\CMPSlineTest2.nxc"
5	32	19		cmp 1, __zfmove, __signed_stack_001move, __D0move
5	31	23	#line 31 "C:\Users\ronk\Documents\NXCprograms\CMPSlineTest2.nxc"
5	32	23		mov __D0move, __zfmove
5	32	25	#line 32 "C:\Users\ronk\Documents\NXCprograms\CMPSlineTest2.nxc"
5	33	25		brtst 4, __NXC_Label_540, __zfmove
5	32	28	#line 32 "C:\Users\ronk\Documents\NXCprograms\CMPSlineTest2.nxc"
5	32	28	#line 32 "C:\Users\ronk\Documents\NXCprograms\CMPSlineTest2.nxc"
5	32	28	#line 32 "C:\Users\ronk\Documents\NXCprograms\CMPSlineTest2.nxc"
5	32	28	#line 32 "C:\Users\ronk\Documents\NXCprograms\CMPSlineTest2.nxc"
5	33	28		sub __signed_stack_001move, target_heading, Compass_val
5	32	32	#line 32 "C:\Users\ronk\Documents\NXCprograms\CMPSlineTest2.nxc"
5	32	32	#line 32 "C:\Users\ronk\Documents\NXCprograms\CMPSlineTest2.nxc"
5	33	32		mov __D0move, __constValNeg179
5	32	34	#line 32 "C:\Users\ronk\Documents\NXCprograms\CMPSlineTest2.nxc"
5	33	34		cmp 0, __zfmove, __signed_stack_001move, __D0move
5	32	38	#line 32 "C:\Users\ronk\Documents\NXCprograms\CMPSlineTest2.nxc"
5	33	38		mov __D0move, __zfmove
5	33	40	#line 33 "C:\Users\ronk\Documents\NXCprograms\CMPSlineTest2.nxc"
5	34	40		brtst 4, __NXC_Label_547, __zfmove
5	33	43	#line 33 "C:\Users\ronk\Documents\NXCprograms\CMPSlineTest2.nxc"
5	33	43	#line 33 "C:\Users\ronk\Documents\NXCprograms\CMPSlineTest2.nxc"
5	33	43	#line 33 "C:\Users\ronk\Documents\NXCprograms\CMPSlineTest2.nxc"
5	33	43	#line 33 "C:\Users\ronk\Documents\NXCprograms\CMPSlineTest2.nxc"
5	34	43		sub __signed_stack_001move, target_heading, Compass_val
5	33	47	#line 33 "C:\Users\ronk\Documents\NXCprograms\CMPSlineTest2.nxc"
5	34	47	#line 34 "C:\Users\ronk\Documents\NXCprograms\CMPSlineTest2.nxc"
5	34	47	#line 34 "C:\Users\ronk\Documents\NXCprograms\CMPSlineTest2.nxc"
5	35	47		add relative_heading, __signed_stack_001move, __constVal360
5	34	51	#line 34 "C:\Users\ronk\Documents\NXCprograms\CMPSlineTest2.nxc"
5	34	51	#line 34 "C:\Users\ronk\Documents\NXCprograms\CMPSlineTest2.nxc"
5	36	51	#line 36 "C:\Users\ronk\Documents\NXCprograms\CMPSlineTest2.nxc"
5	37	51		jmp __NXC_Label_550
5	36	53	#line 36 "C:\Users\ronk\Documents\NXCprograms\CMPSlineTest2.nxc"
5	36	53	#line 36 "C:\Users\ronk\Documents\NXCprograms\CMPSlineTest2.nxc"
5	37	53	#line 37 "C:\Users\ronk\Documents\NXCprograms\CMPSlineTest2.nxc"
5	37	53	#line 37 "C:\Users\ronk\Documents\NXCprograms\CMPSlineTest2.nxc"
5	38	53		sub relative_heading, target_heading, Compass_val
5	37	57	#line 37 "C:\Users\ronk\Documents\NXCprograms\CMPSlineTest2.nxc"
5	37	57	#line 37 "C:\Users\ronk\Documents\NXCprograms\CMPSlineTest2.nxc"
5	39	57	#line 39 "C:\Users\ronk\Documents\NXCprograms\CMPSlineTest2.nxc"
5	39	57	#line 39 "C:\Users\ronk\Documents\NXCprograms\CMPSlineTest2.nxc"
5	40	57		mov __signed_stack_001move, relative_heading
5	39	59	#line 39 "C:\Users\ronk\Documents\NXCprograms\CMPSlineTest2.nxc"
5	39	59	#line 39 "C:\Users\ronk\Documents\NXCprograms\CMPSlineTest2.nxc"
5	40	59		set __D0move, 0
5	39	62	#line 39 "C:\Users\ronk\Documents\NXCprograms\CMPSlineTest2.nxc"
5	40	62		cmp 0, __zfmove, __signed_stack_001move, __D0move
5	39	66	#line 39 "C:\Users\ronk\Documents\NXCprograms\CMPSlineTest2.nxc"
5	40	66		mov __D0move, __zfmove
5	40	68	#line 40 "C:\Users\ronk\Documents\NXCprograms\CMPSlineTest2.nxc"
5	41	68		brtst 4, __NXC_Label_555, __zfmove
5	41	71	#line 41 "C:\Users\ronk\Documents\NXCprograms\CMPSlineTest2.nxc"
5	42	71		mov steer, __constValNeg100
5	41	73	#line 41 "C:\Users\ronk\Documents\NXCprograms\CMPSlineTest2.nxc"
5	41	73	#line 41 "C:\Users\ronk\Documents\NXCprograms\CMPSlineTest2.nxc"
5	43	73	#line 43 "C:\Users\ronk\Documents\NXCprograms\CMPSlineTest2.nxc"
5	44	73		jmp __NXC_Label_558
5	44	75	#line 44 "C:\Users\ronk\Documents\NXCprograms\CMPSlineTest2.nxc"
5	45	75		set steer, 100
5	44	78	#line 44 "C:\Users\ronk\Documents\NXCprograms\CMPSlineTest2.nxc"
5	44	78	#line 44 "C:\Users\ronk\Documents\NXCprograms\CMPSlineTest2.nxc"
5	46	78	#line 46 "C:\Users\ronk\Documents\NXCprograms\CMPSlineTest2.nxc"
5	46	78	#line 46 "C:\Users\ronk\Documents\NXCprograms\CMPSlineTest2.nxc"
5	47	78		set __signed_stack_001move, 40
5	46	81	#line 46 "C:\Users\ronk\Documents\NXCprograms\CMPSlineTest2.nxc"
5	46	81	#line 46 "C:\Users\ronk\Documents\NXCprograms\CMPSlineTest2.nxc"
5	47	81		mov __D0move, steer
5	47	83	#line 47 "C:\Users\ronk\Documents\NXCprograms\CMPSlineTest2.nxc"
5	48	83	#pragma macro 7
5	48	83		setout __OUT_BC, 2, __signed_stack_001move, 1, __constVal7, 8, __constVal2, 7, __D0move, 6, __constVal32, 5, __constVal0, 10, __constVal96, 11, __constVal32, 12, __constVal32, 0, __constVal63
5	4217	106	#line 4217 "C:\Users\ronk\Documents\NXCprograms\CMPSlineTest2.nxc"
5	47	106	#line 47 "C:\Users\ronk\Documents\NXCprograms\CMPSlineTest2.nxc"
5	49	106	#line 49 "C:\Users\ronk\Documents\NXCprograms\CMPSlineTest2.nxc"
5	50	106		jmp __NXC_Label_539
5	49	108	#line 49 "C:\Users\ronk\Documents\NXCprograms\CMPSlineTest2.nxc"
5	50	108	#line 50 "C:\Users\ronk\Documents\NXCprograms\CMPSlineTest2.nxc"
5	51	108	#pragma macro 7
5	51	108		setout __constVal1, 0, __constVal8
5	4224	113	#line 4224 "C:\Users\ronk\Documents\NXCprograms\CMPSlineTest2.nxc"
5	50	113	#line 50 "C:\Users\ronk\Documents\NXCprograms\CMPSlineTest2.nxc"
5	50	113	#line 50 "C:\Users\ronk\Documents\NXCprograms\CMPSlineTest2.nxc"
5	51	113		getout __signed_stack_001move, __constVal1, 4
5	50	117	#line 50 "C:\Users\ronk\Documents\NXCprograms\CMPSlineTest2.nxc"
5	51	117	#line 51 "C:\Users\ronk\Documents\NXCprograms\CMPSlineTest2.nxc"
5	52	117		set __D0move, 1080
5	51	120	#line 51 "C:\Users\ronk\Documents\NXCprograms\CMPSlineTest2.nxc"
5	52	120		cmp 0, __zfmove, __signed_stack_001move, __D0move
5	51	124	#line 51 "C:\Users\ronk\Documents\NXCprograms\CMPSlineTest2.nxc"
5	52	124		mov __D0move, __zfmove
5	52	126	#line 52 "C:\Users\ronk\Documents\NXCprograms\CMPSlineTest2.nxc"
5	53	126		brtst 4, __NXC_Label_566, __zfmove
5	52	129	#line 52 "C:\Users\ronk\Documents\NXCprograms\CMPSlineTest2.nxc"
5	53	129		set __signed_stack_001move, 65
5	52	132	#line 52 "C:\Users\ronk\Documents\NXCprograms\CMPSlineTest2.nxc"
5	52	132	#line 52 "C:\Users\ronk\Documents\NXCprograms\CMPSlineTest2.nxc"
5	52	132	#line 52 "C:\Users\ronk\Documents\NXCprograms\CMPSlineTest2.nxc"
5	52	132	#line 52 "C:\Users\ronk\Documents\NXCprograms\CMPSlineTest2.nxc"
5	52	132	#line 52 "C:\Users\ronk\Documents\NXCprograms\CMPSlineTest2.nxc"
5	53	132		sub __D0move, target_heading, Compass_val
5	53	136	#line 53 "C:\Users\ronk\Documents\NXCprograms\CMPSlineTest2.nxc"
5	54	136	#pragma macro 7
5	54	136		setout __OUT_BC, 2, __signed_stack_001move, 1, __constVal7, 8, __constVal2, 7, __D0move, 6, __constVal32, 5, __constVal0, 10, __constVal96, 11, __constVal32, 12, __constVal32, 0, __constVal23
5	4258	159	#line 4258 "C:\Users\ronk\Documents\NXCprograms\CMPSlineTest2.nxc"
5	53	159	#line 53 "C:\Users\ronk\Documents\NXCprograms\CMPSlineTest2.nxc"
5	56	159	#line 56 "C:\Users\ronk\Documents\NXCprograms\CMPSlineTest2.nxc"
5	57	159		jmp __NXC_Label_565
5	56	161	#line 56 "C:\Users\ronk\Documents\NXCprograms\CMPSlineTest2.nxc"
5	57	161	#line 57 "C:\Users\ronk\Documents\NXCprograms\CMPSlineTest2.nxc"
5	58	161	#pragma macro 7
5	58	161		setout __OUT_BC, 2, __constVal0, 1, __constVal3, 8, __constVal0, 6, __constVal32, 7, __constVal0, 5, __constVal0, 10, __constVal96, 11, __constVal32, 12, __constVal32, 0, __constVal63
5	4265	184	#line 4265 "C:\Users\ronk\Documents\NXCprograms\CMPSlineTest2.nxc"
5	57	184	#line 57 "C:\Users\ronk\Documents\NXCprograms\CMPSlineTest2.nxc"
5	57	184	#line 57 "C:\Users\ronk\Documents\NXCprograms\CMPSlineTest2.nxc"
5	58	184		set __Wait_7qG2_ms_7qG2_000_inline_move, 3000
5	57	187	#line 57 "C:\Users\ronk\Documents\NXCprograms\CMPSlineTest2.nxc"
5	7921	187	#line 7921 "NXCDefs.h"
5	7922	187		wait2 NA, __Wait_7qG2_ms_7qG2_000_inline_move
5	7921	190	#line 7921 "NXCDefs.h"
5	58	190	#line 58 "C:\Users\ronk\Documents\NXCprograms\CMPSlineTest2.nxc"
5	58	190	#line 58 "C:\Users\ronk\Documents\NXCprograms\CMPSlineTest2.nxc"
5	58	190	#line 58 "C:\Users\ronk\Documents\NXCprograms\CMPSlineTest2.nxc"
5	60	190	#line 60 "C:\Users\ronk\Documents\NXCprograms\CMPSlineTest2.nxc"
5	60	190	#line 60 "C:\Users\ronk\Documents\NXCprograms\CMPSlineTest2.nxc"
5	61	190		add target_heading, target_heading, __constVal180
5	60	194	#line 60 "C:\Users\ronk\Documents\NXCprograms\CMPSlineTest2.nxc"
5	60	194	#line 60 "C:\Users\ronk\Documents\NXCprograms\CMPSlineTest2.nxc"
5	60	194	#line 60 "C:\Users\ronk\Documents\NXCprograms\CMPSlineTest2.nxc"
5	61	194		mov __signed_stack_001move, target_heading
5	60	196	#line 60 "C:\Users\ronk\Documents\NXCprograms\CMPSlineTest2.nxc"
5	61	196	#line 61 "C:\Users\ronk\Documents\NXCprograms\CMPSlineTest2.nxc"
5	62	196		set __D0move, 359
5	61	199	#line 61 "C:\Users\ronk\Documents\NXCprograms\CMPSlineTest2.nxc"
5	62	199		cmp 1, __zfmove, __signed_stack_001move, __D0move
5	61	203	#line 61 "C:\Users\ronk\Documents\NXCprograms\CMPSlineTest2.nxc"
5	62	203		mov __D0move, __zfmove
5	62	205	#line 62 "C:\Users\ronk\Documents\NXCprograms\CMPSlineTest2.nxc"
5	63	205		brtst 4, __NXC_Label_579, __zfmove
5	63	208	#line 63 "C:\Users\ronk\Documents\NXCprograms\CMPSlineTest2.nxc"
5	64	208		set target_heading, 95
5	63	211	#line 63 "C:\Users\ronk\Documents\NXCprograms\CMPSlineTest2.nxc"
5	63	211	#line 63 "C:\Users\ronk\Documents\NXCprograms\CMPSlineTest2.nxc"
5	65	211	#line 65 "C:\Users\ronk\Documents\NXCprograms\CMPSlineTest2.nxc"
5	68	211	#line 68 "C:\Users\ronk\Documents\NXCprograms\CMPSlineTest2.nxc"
5	69	211		jmp __NXC_Label_535
5	68	213	#line 68 "C:\Users\ronk\Documents\NXCprograms\CMPSlineTest2.nxc"
5	69	213		exit -1, -1
6	78	0	#line 78 "C:\Users\ronk\Documents\NXCprograms\CMPSlineTest2.nxc"
6	79	0		subret ____initialize_global_data_return
#CLUMPS
Clump	Name	Offset	File
0	main	0	C:\Users\ronk\Documents\NXCprograms\CMPSlineTest2.nxc
1	__ResetSensorSubroutine	47	NXTDefs.h
2	__ReadLSBytes1	60	NXTDefs.h
3	read	145	C:\Users\ronk\Documents\NXCprograms\CMPSlineTest2.nxc
4	display	192	C:\Users\ronk\Documents\NXCprograms\CMPSlineTest2.nxc
5	move	378	C:\Users\ronk\Documents\NXCprograms\CMPSlineTest2.nxc
6	__initialize_global_data	594	C:\Users\ronk\Documents\NXCprograms\CMPSlineTest2.nxc
